; Function Attrs: mustprogress uwtable
define internal void @_ZN3nixL13prim_fetchGitERNS_9EvalStateENS_6PosIdxEPPNS_5ValueERS3_(ptr noundef nonnull align 8 dereferenceable(1248) %0, i32 %1, ptr nocapture noundef readonly %2, ptr noundef nonnull align 8 dereferenceable(24) %3) #4 {
  %5 = alloca %"struct.nix::FetchTreeParams", align 1
  store i8 1, ptr %5, align 1
  %6 = getelementptr inbounds i8, ptr %5, i64 1
  store i8 1, ptr %6, align 1
  %7 = getelementptr inbounds i8, ptr %5, i64 2
  store i8 1, ptr %7, align 1
  call fastcc void @_ZN3nixL9fetchTreeERNS_9EvalStateENS_6PosIdxEPPNS_5ValueERS3_RKNS_15FetchTreeParamsE(ptr noundef nonnull align 8 dereferenceable(1248) %0, i32 %1, ptr noundef %2, ptr noundef nonnull align 8 dereferenceable(24) %3, ptr noundef nonnull align 1 dereferenceable(3) %5)
  ret void
}